target datalayout = "e-m:e-p270:32:32-p271:32:32-p272:64:64-i64:64-i128:128-f80:128-n8:16:32:64-S128"
target triple = "x86_64-pc-linux-gnu"

%struct.SparseMatrix_struct = type { i32, i32, i32, i32, i32, ptr, ptr, ptr, i32, i8, i64 }

; Function Attrs: nounwind uwtable
define dso_local void @map_optimal_coloring(i32 noundef %0, ptr noundef %1, ptr noundef %2, ptr noundef %3, ptr noundef %4) #0 {
  %6 = alloca i32, align 4
  %7 = alloca ptr, align 8
  %8 = alloca ptr, align 8
  %9 = alloca ptr, align 8
  %10 = alloca ptr, align 8
  %11 = alloca ptr, align 8
  %12 = alloca ptr, align 8
  %13 = alloca i32, align 4
  %14 = alloca i32, align 4
  store i32 %0, ptr %6, align 4, !tbaa !21
  store ptr %1, ptr %7, align 8, !tbaa !9
  store ptr %2, ptr %8, align 8, !tbaa !29
  store ptr %3, ptr %9, align 8, !tbaa !29
  store ptr %4, ptr %10, align 8, !tbaa !29
  call void @llvm.lifetime.start.p0(i64 8, ptr %11) #14
  store ptr null, ptr %11, align 8, !tbaa !37
  call void @llvm.lifetime.start.p0(i64 8, ptr %12) #14
  store ptr null, ptr %12, align 8, !tbaa !29
  call void @llvm.lifetime.start.p0(i64 4, ptr %13) #14
  %15 = load ptr, ptr %7, align 8, !tbaa !9
  %16 = getelementptr inbounds nuw %struct.SparseMatrix_struct, ptr %15, i32 0, i32 0
  %17 = load i32, ptr %16, align 8, !tbaa !15
  store i32 %17, ptr %13, align 4, !tbaa !21
  call void @llvm.lifetime.start.p0(i64 4, ptr %14) #14
  %18 = load i32, ptr %6, align 4, !tbaa !21
  %19 = load ptr, ptr %7, align 8, !tbaa !9
  call void @country_graph_coloring(i32 noundef %18, ptr noundef %19, ptr noundef %11)
  %20 = load ptr, ptr %8, align 8, !tbaa !29
  %21 = getelementptr inbounds nuw float, ptr %20, i32 1
  store ptr %21, ptr %8, align 8, !tbaa !29
  %22 = load ptr, ptr %10, align 8, !tbaa !29
  %23 = getelementptr inbounds nuw float, ptr %22, i32 1
  store ptr %23, ptr %10, align 8, !tbaa !29
  %24 = load ptr, ptr %9, align 8, !tbaa !29
  %25 = getelementptr inbounds nuw float, ptr %24, i32 1
  store ptr %25, ptr %9, align 8, !tbaa !29
  %26 = load i32, ptr %13, align 4, !tbaa !21
  %27 = load ptr, ptr %8, align 8, !tbaa !29
  %28 = load i32, ptr %13, align 4, !tbaa !21
  %29 = load ptr, ptr %11, align 8, !tbaa !37
  call void @vector_float_take(i32 noundef %26, ptr noundef %27, i32 noundef %28, ptr noundef %29, ptr noundef %12)
  store i32 0, ptr %14, align 4, !tbaa !21
  br label %30

30:                                               ; preds = %44, %5
  %31 = load i32, ptr %14, align 4, !tbaa !21
  %32 = load i32, ptr %13, align 4, !tbaa !21
  %33 = icmp slt i32 %31, %32
  br i1 %33, label %34, label %47

34:                                               ; preds = %30
  %35 = load ptr, ptr %12, align 8, !tbaa !29
  %36 = load i32, ptr %14, align 4, !tbaa !21
  %37 = sext i32 %36 to i64
  %38 = getelementptr inbounds float, ptr %35, i64 %37
  %39 = load float, ptr %38, align 4, !tbaa !31
  %40 = load ptr, ptr %8, align 8, !tbaa !29
  %41 = load i32, ptr %14, align 4, !tbaa !21
  %42 = sext i32 %41 to i64
  %43 = getelementptr inbounds float, ptr %40, i64 %42
  store float %39, ptr %43, align 4, !tbaa !31
  br label %44

44:                                               ; preds = %34
  %45 = load i32, ptr %14, align 4, !tbaa !21
  %46 = add nsw i32 %45, 1
  store i32 %46, ptr %14, align 4, !tbaa !21
  br label %30, !llvm.loop !38

47:                                               ; preds = %30
  %48 = load i32, ptr %13, align 4, !tbaa !21
  %49 = load ptr, ptr %9, align 8, !tbaa !29
  %50 = load i32, ptr %13, align 4, !tbaa !21
  %51 = load ptr, ptr %11, align 8, !tbaa !37
  call void @vector_float_take(i32 noundef %48, ptr noundef %49, i32 noundef %50, ptr noundef %51, ptr noundef %12)
  store i32 0, ptr %14, align 4, !tbaa !21
  br label %52

52:                                               ; preds = %66, %47
  %53 = load i32, ptr %14, align 4, !tbaa !21
  %54 = load i32, ptr %13, align 4, !tbaa !21
  %55 = icmp slt i32 %53, %54
  br i1 %55, label %56, label %69

56:                                               ; preds = %52
  %57 = load ptr, ptr %12, align 8, !tbaa !29
  %58 = load i32, ptr %14, align 4, !tbaa !21
  %59 = sext i32 %58 to i64
  %60 = getelementptr inbounds float, ptr %57, i64 %59
  %61 = load float, ptr %60, align 4, !tbaa !31
  %62 = load ptr, ptr %9, align 8, !tbaa !29
  %63 = load i32, ptr %14, align 4, !tbaa !21
  %64 = sext i32 %63 to i64
  %65 = getelementptr inbounds float, ptr %62, i64 %64
  store float %61, ptr %65, align 4, !tbaa !31
  br label %66

66:                                               ; preds = %56
  %67 = load i32, ptr %14, align 4, !tbaa !21
  %68 = add nsw i32 %67, 1
  store i32 %68, ptr %14, align 4, !tbaa !21
  br label %52, !llvm.loop !39

69:                                               ; preds = %52
  %70 = load i32, ptr %13, align 4, !tbaa !21
  %71 = load ptr, ptr %10, align 8, !tbaa !29
  %72 = load i32, ptr %13, align 4, !tbaa !21
  %73 = load ptr, ptr %11, align 8, !tbaa !37
  call void @vector_float_take(i32 noundef %70, ptr noundef %71, i32 noundef %72, ptr noundef %73, ptr noundef %12)
  store i32 0, ptr %14, align 4, !tbaa !21
  br label %74

74:                                               ; preds = %88, %69
  %75 = load i32, ptr %14, align 4, !tbaa !21
  %76 = load i32, ptr %13, align 4, !tbaa !21
  %77 = icmp slt i32 %75, %76
  br i1 %77, label %78, label %91

78:                                               ; preds = %74
  %79 = load ptr, ptr %12, align 8, !tbaa !29
  %80 = load i32, ptr %14, align 4, !tbaa !21
  %81 = sext i32 %80 to i64
  %82 = getelementptr inbounds float, ptr %79, i64 %81
  %83 = load float, ptr %82, align 4, !tbaa !31
  %84 = load ptr, ptr %10, align 8, !tbaa !29
  %85 = load i32, ptr %14, align 4, !tbaa !21
  %86 = sext i32 %85 to i64
  %87 = getelementptr inbounds float, ptr %84, i64 %86
  store float %83, ptr %87, align 4, !tbaa !31
  br label %88

88:                                               ; preds = %78
  %89 = load i32, ptr %14, align 4, !tbaa !21
  %90 = add nsw i32 %89, 1
  store i32 %90, ptr %14, align 4, !tbaa !21
  br label %74, !llvm.loop !40

91:                                               ; preds = %74
  %92 = load ptr, ptr %12, align 8, !tbaa !29
  call void @free(ptr noundef %92) #14
  call void @llvm.lifetime.end.p0(i64 4, ptr %14) #14
  call void @llvm.lifetime.end.p0(i64 4, ptr %13) #14
  call void @llvm.lifetime.end.p0(i64 8, ptr %12) #14
  call void @llvm.lifetime.end.p0(i64 8, ptr %11) #14
  ret void
}