; Function Attrs: nounwind uwtable
define dso_local void @map_optimal_coloring(i32 noundef %0, ptr noundef %1, ptr noundef %2, ptr noundef %3, ptr noundef %4) local_unnamed_addr #0 {
  %6 = alloca ptr, align 8
  %7 = alloca ptr, align 8
  call void @llvm.lifetime.start.p0(i64 8, ptr nonnull %6) #19
  store ptr null, ptr %6, align 8, !tbaa !26
  call void @llvm.lifetime.start.p0(i64 8, ptr nonnull %7) #19
  store ptr null, ptr %7, align 8, !tbaa !17
  %8 = load i32, ptr %1, align 8, !tbaa !9
  call void @country_graph_coloring(i32 noundef %0, ptr noundef nonnull %1, ptr noundef nonnull %6) #19
  %9 = getelementptr inbounds nuw i8, ptr %2, i64 4
  %10 = getelementptr inbounds nuw i8, ptr %4, i64 4
  %11 = getelementptr inbounds nuw i8, ptr %3, i64 4
  %12 = load ptr, ptr %6, align 8, !tbaa !26
  call void @vector_float_take(i32 noundef %8, ptr noundef nonnull %9, i32 noundef %8, ptr noundef %12, ptr noundef nonnull %7) #19
  %13 = icmp sgt i32 %8, 0
  br i1 %13, label %.lr.ph, label %._crit_edge.thread

._crit_edge.thread:                               ; preds = %5
  %14 = load ptr, ptr %6, align 8, !tbaa !26
  call void @vector_float_take(i32 noundef %8, ptr noundef nonnull %11, i32 noundef %8, ptr noundef %14, ptr noundef nonnull %7) #19
  %15 = load ptr, ptr %6, align 8, !tbaa !26
  call void @vector_float_take(i32 noundef %8, ptr noundef nonnull %10, i32 noundef %8, ptr noundef %15, ptr noundef nonnull %7) #19
  %.pre53 = load ptr, ptr %7, align 8, !tbaa !17
  br label %._crit_edge41

.lr.ph:                                           ; preds = %5
  %16 = load ptr, ptr %7, align 8, !tbaa !17
  %wide.trip.count = zext nneg i32 %8 to i64
  br label %17

17:                                               ; preds = %.lr.ph, %17
  %indvars.iv = phi i64 [ 0, %.lr.ph ], [ %indvars.iv.next, %17 ]
  %18 = getelementptr inbounds nuw float, ptr %16, i64 %indvars.iv
  %19 = load float, ptr %18, align 4, !tbaa !22
  %20 = getelementptr inbounds nuw float, ptr %9, i64 %indvars.iv
  store float %19, ptr %20, align 4, !tbaa !22
  %indvars.iv.next = add nuw nsw i64 %indvars.iv, 1
  %exitcond.not = icmp eq i64 %indvars.iv.next, %wide.trip.count
  br i1 %exitcond.not, label %._crit_edge, label %17, !llvm.loop !27

._crit_edge:                                      ; preds = %17
  %21 = load ptr, ptr %6, align 8, !tbaa !26
  call void @vector_float_take(i32 noundef %8, ptr noundef nonnull %11, i32 noundef %8, ptr noundef %21, ptr noundef nonnull %7) #19
  %22 = load ptr, ptr %7, align 8, !tbaa !17
  %wide.trip.count46 = zext nneg i32 %8 to i64
  br label %23

23:                                               ; preds = %._crit_edge, %23
  %indvars.iv43 = phi i64 [ 0, %._crit_edge ], [ %indvars.iv.next44, %23 ]
  %24 = getelementptr inbounds nuw float, ptr %22, i64 %indvars.iv43
  %25 = load float, ptr %24, align 4, !tbaa !22
  %26 = getelementptr inbounds nuw float, ptr %11, i64 %indvars.iv43
  store float %25, ptr %26, align 4, !tbaa !22
  %indvars.iv.next44 = add nuw nsw i64 %indvars.iv43, 1
  %exitcond47.not = icmp eq i64 %indvars.iv.next44, %wide.trip.count46
  br i1 %exitcond47.not, label %._crit_edge37, label %23, !llvm.loop !28

._crit_edge37:                                    ; preds = %23
  %27 = load ptr, ptr %6, align 8, !tbaa !26
  call void @vector_float_take(i32 noundef %8, ptr noundef nonnull %10, i32 noundef %8, ptr noundef %27, ptr noundef nonnull %7) #19
  %.pre = load ptr, ptr %7, align 8, !tbaa !17
  %wide.trip.count51 = zext nneg i32 %8 to i64
  br label %28

28:                                               ; preds = %._crit_edge37, %28
  %indvars.iv48 = phi i64 [ 0, %._crit_edge37 ], [ %indvars.iv.next49, %28 ]
  %29 = getelementptr inbounds nuw float, ptr %.pre, i64 %indvars.iv48
  %30 = load float, ptr %29, align 4, !tbaa !22
  %31 = getelementptr inbounds nuw float, ptr %10, i64 %indvars.iv48
  store float %30, ptr %31, align 4, !tbaa !22
  %indvars.iv.next49 = add nuw nsw i64 %indvars.iv48, 1
  %exitcond52.not = icmp eq i64 %indvars.iv.next49, %wide.trip.count51
  br i1 %exitcond52.not, label %._crit_edge41, label %28, !llvm.loop !29

._crit_edge41:                                    ; preds = %28, %._crit_edge.thread
  %.pre54 = phi ptr [ %.pre53, %._crit_edge.thread ], [ %.pre, %28 ]
  call void @free(ptr noundef %.pre54) #19
  call void @llvm.lifetime.end.p0(i64 8, ptr nonnull %7) #19
  call void @llvm.lifetime.end.p0(i64 8, ptr nonnull %6) #19
  ret void
}